; ModuleID = '23/509.c'
source_filename = "23/509.c"
target datalayout = "e-m:e-p270:32:32-p271:32:32-p272:64:64-i64:64-f80:128-n8:16:32:64-S128"
target triple = "x86_64-pc-linux-gnu"

; Function Attrs: noinline nounwind uwtable
define dso_local i32 @main() #0 {
  %1 = alloca i32, align 4
  %2 = alloca [100 x [100 x i32]], align 16
  %3 = alloca [100 x i32], align 16
  %4 = alloca i32, align 4
  %5 = alloca i32, align 4
  %6 = alloca i32, align 4
  %7 = alloca i32, align 4
  %8 = alloca i32, align 4
  %9 = alloca i32, align 4
  store i32 0, i32* %1, align 4
  store i32 1, i32* %6, align 4
  br label %10

10:                                               ; preds = %65, %0
  %11 = load i32, i32* %6, align 4
  %12 = icmp sle i32 %11, 100
  br i1 %12, label %13, label %68

13:                                               ; preds = %10
  store i32 1, i32* %7, align 4
  br label %14

14:                                               ; preds = %56, %13
  %15 = load i32, i32* %7, align 4
  %16 = icmp sle i32 %15, 100
  br i1 %16, label %17, label %59

17:                                               ; preds = %14
  %18 = call i32 @getchar()
  %19 = load i32, i32* %6, align 4
  %20 = sext i32 %19 to i64
  %21 = getelementptr inbounds [100 x [100 x i32]], [100 x [100 x i32]]* %2, i64 0, i64 %20
  %22 = load i32, i32* %7, align 4
  %23 = sext i32 %22 to i64
  %24 = getelementptr inbounds [100 x i32], [100 x i32]* %21, i64 0, i64 %23
  store i32 %18, i32* %24, align 4
  %25 = load i32, i32* %6, align 4
  %26 = sext i32 %25 to i64
  %27 = getelementptr inbounds [100 x [100 x i32]], [100 x [100 x i32]]* %2, i64 0, i64 %26
  %28 = load i32, i32* %7, align 4
  %29 = sext i32 %28 to i64
  %30 = getelementptr inbounds [100 x i32], [100 x i32]* %27, i64 0, i64 %29
  %31 = load i32, i32* %30, align 4
  %32 = icmp eq i32 %31, 10
  br i1 %32, label %42, label %33

33:                                               ; preds = %17
  %34 = load i32, i32* %6, align 4
  %35 = sext i32 %34 to i64
  %36 = getelementptr inbounds [100 x [100 x i32]], [100 x [100 x i32]]* %2, i64 0, i64 %35
  %37 = load i32, i32* %7, align 4
  %38 = sext i32 %37 to i64
  %39 = getelementptr inbounds [100 x i32], [100 x i32]* %36, i64 0, i64 %38
  %40 = load i32, i32* %39, align 4
  %41 = icmp eq i32 %40, 32
  br i1 %41, label %42, label %55

42:                                               ; preds = %33, %17
  %43 = load i32, i32* %6, align 4
  %44 = sext i32 %43 to i64
  %45 = getelementptr inbounds [100 x [100 x i32]], [100 x [100 x i32]]* %2, i64 0, i64 %44
  %46 = load i32, i32* %7, align 4
  %47 = sext i32 %46 to i64
  %48 = getelementptr inbounds [100 x i32], [100 x i32]* %45, i64 0, i64 %47
  %49 = load i32, i32* %48, align 4
  store i32 %49, i32* %5, align 4
  %50 = load i32, i32* %7, align 4
  %51 = sub nsw i32 %50, 1
  %52 = load i32, i32* %6, align 4
  %53 = sext i32 %52 to i64
  %54 = getelementptr inbounds [100 x i32], [100 x i32]* %3, i64 0, i64 %53
  store i32 %51, i32* %54, align 4
  br label %59

55:                                               ; preds = %33
  br label %56

56:                                               ; preds = %55
  %57 = load i32, i32* %7, align 4
  %58 = add nsw i32 %57, 1
  store i32 %58, i32* %7, align 4
  br label %14

59:                                               ; preds = %42, %14
  %60 = load i32, i32* %5, align 4
  %61 = icmp eq i32 %60, 10
  br i1 %61, label %62, label %64

62:                                               ; preds = %59
  %63 = load i32, i32* %6, align 4
  store i32 %63, i32* %4, align 4
  br label %68

64:                                               ; preds = %59
  br label %65

65:                                               ; preds = %64
  %66 = load i32, i32* %6, align 4
  %67 = add nsw i32 %66, 1
  store i32 %67, i32* %6, align 4
  br label %10

68:                                               ; preds = %62, %10
  %69 = load i32, i32* %4, align 4
  store i32 %69, i32* %8, align 4
  br label %70

70:                                               ; preds = %99, %68
  %71 = load i32, i32* %8, align 4
  %72 = icmp sge i32 %71, 1
  br i1 %72, label %73, label %102

73:                                               ; preds = %70
  store i32 1, i32* %9, align 4
  br label %74

74:                                               ; preds = %90, %73
  %75 = load i32, i32* %9, align 4
  %76 = load i32, i32* %8, align 4
  %77 = sext i32 %76 to i64
  %78 = getelementptr inbounds [100 x i32], [100 x i32]* %3, i64 0, i64 %77
  %79 = load i32, i32* %78, align 4
  %80 = icmp sle i32 %75, %79
  br i1 %80, label %81, label %93

81:                                               ; preds = %74
  %82 = load i32, i32* %8, align 4
  %83 = sext i32 %82 to i64
  %84 = getelementptr inbounds [100 x [100 x i32]], [100 x [100 x i32]]* %2, i64 0, i64 %83
  %85 = load i32, i32* %9, align 4
  %86 = sext i32 %85 to i64
  %87 = getelementptr inbounds [100 x i32], [100 x i32]* %84, i64 0, i64 %86
  %88 = load i32, i32* %87, align 4
  %89 = call i32 @putchar(i32 %88)
  br label %90

90:                                               ; preds = %81
  %91 = load i32, i32* %9, align 4
  %92 = add nsw i32 %91, 1
  store i32 %92, i32* %9, align 4
  br label %74

93:                                               ; preds = %74
  %94 = load i32, i32* %8, align 4
  %95 = icmp eq i32 %94, 1
  br i1 %95, label %96, label %97

96:                                               ; preds = %93
  br label %102

97:                                               ; preds = %93
  %98 = call i32 @putchar(i32 32)
  br label %99

99:                                               ; preds = %97
  %100 = load i32, i32* %8, align 4
  %101 = add nsw i32 %100, -1
  store i32 %101, i32* %8, align 4
  br label %70

102:                                              ; preds = %96, %70
  ret i32 0
}

declare dso_local i32 @getchar() #1

declare dso_local i32 @putchar(i32) #1


!llvm.module.flags = !{!0}
!llvm.ident = !{!1}

!0 = !{i32 1, !"wchar_size", i32 4}
!1 = !{!"clang version 10.0.0-4ubuntu1 "}
